target datalayout = "e-m:e-p270:32:32-p271:32:32-p272:64:64-i64:64-i128:128-f80:128-n8:16:32:64-S128"
target triple = "x86_64-pc-linux-gnu"

%struct.pmix_mca_base_framework_t = type { ptr, ptr, ptr, ptr, ptr, ptr, i32, i32, ptr, ptr, i32, i32, %struct.pmix_list_t, %struct.pmix_list_t }
%struct.pmix_list_t = type { %struct.pmix_object_t, %struct.pmix_list_item_t, i64 }
%struct.pmix_object_t = type { %union.pthread_mutex_t, ptr, i32, %struct.pmix_tma }
%union.pthread_mutex_t = type { %struct.__pthread_mutex_s }
%struct.__pthread_mutex_s = type { i32, i32, i32, i32, i32, i16, i16, %struct.__pthread_internal_list }
%struct.__pthread_internal_list = type { ptr, ptr }
%struct.pmix_tma = type { ptr, ptr, ptr, ptr, ptr, ptr, ptr, ptr }
%struct.pmix_list_item_t = type { %struct.pmix_object_t, ptr, ptr, i32 }
%struct.pmix_output_desc_t = type { i8, i8, i32, i8, i32, ptr, ptr, i32, ptr, i32, i8, i8, i8, i8, ptr, i32, i32 }
%struct.dirent = type { i64, i64, i16, i8, [256 x i8] }

@pmix_ptl_base_framework = external global %struct.pmix_mca_base_framework_t, align 8
@pmix_output_info = external global [0 x %struct.pmix_output_desc_t], align 8
@.str.37 = private unnamed_addr constant [33 x i8] c"pmix:ptl: searching directory %s\00", align 1
@.str.38 = private unnamed_addr constant [2 x i8] c".\00", align 1
@.str.39 = private unnamed_addr constant [3 x i8] c"..\00", align 1
@.str.40 = private unnamed_addr constant [29 x i8] c"pmix:tool: checking %s vs %s\00", align 1
@.str.41 = private unnamed_addr constant [27 x i8] c"pmix:tool: reading file %s\00", align 1

; Function Attrs: inlinehint nounwind uwtable
define internal i64 @pmix_list_get_size(ptr noundef %0) #6 {
  %2 = alloca ptr, align 8
  store ptr %0, ptr %2, align 8, !tbaa !90
  %3 = load ptr, ptr %2, align 8, !tbaa !90
  %4 = getelementptr inbounds nuw %struct.pmix_list_t, ptr %3, i32 0, i32 2
  %5 = load volatile i64, ptr %4, align 8, !tbaa !141
  ret i64 %5
}

; Function Attrs: nounwind uwtable
define i32 @pmix_ptl_base_df_search(ptr noundef %0, ptr noundef %1, ptr noundef %2, i64 noundef %3, i1 noundef zeroext %4, ptr noundef %5) #0 {
  %7 = alloca i32, align 4
  %8 = alloca ptr, align 8
  %9 = alloca ptr, align 8
  %10 = alloca ptr, align 8
  %11 = alloca i64, align 8
  %12 = alloca i8, align 1
  %13 = alloca ptr, align 8
  %14 = alloca ptr, align 8
  %15 = alloca ptr, align 8
  %16 = alloca ptr, align 8
  %17 = alloca ptr, align 8
  %18 = alloca i32, align 4
  %19 = alloca i32, align 4
  store ptr %0, ptr %8, align 8, !tbaa !8
  store ptr %1, ptr %9, align 8, !tbaa !8
  store ptr %2, ptr %10, align 8, !tbaa !64
  store i64 %3, ptr %11, align 8, !tbaa !33
  %20 = zext i1 %4 to i8
  store i8 %20, ptr %12, align 1, !tbaa !89
  store ptr %5, ptr %13, align 8, !tbaa !90
  call void @llvm.lifetime.start.p0(i64 8, ptr %14) #13
  call void @llvm.lifetime.start.p0(i64 8, ptr %15) #13
  call void @llvm.lifetime.start.p0(i64 8, ptr %16) #13
  call void @llvm.lifetime.start.p0(i64 8, ptr %17) #13
  call void @llvm.lifetime.start.p0(i64 4, ptr %18) #13
  %21 = load ptr, ptr %8, align 8, !tbaa !8
  %22 = call ptr @opendir(ptr noundef %21)
  store ptr %22, ptr %15, align 8, !tbaa !142
  %23 = icmp eq ptr null, %22
  br i1 %23, label %24, label %25

24:                                               ; preds = %6
  store i32 -46, ptr %7, align 4
  store i32 1, ptr %19, align 4
  br label %149

25:                                               ; preds = %6
  %26 = load i32, ptr getelementptr inbounds nuw (%struct.pmix_mca_base_framework_t, ptr @pmix_ptl_base_framework, i32 0, i32 11), align 4, !tbaa !37
  %27 = icmp sge i32 %26, 0
  br i1 %27, label %28, label %41

28:                                               ; preds = %25
  %29 = load i32, ptr getelementptr inbounds nuw (%struct.pmix_mca_base_framework_t, ptr @pmix_ptl_base_framework, i32 0, i32 11), align 4, !tbaa !37
  %30 = icmp slt i32 %29, 64
  br i1 %30, label %31, label %41

31:                                               ; preds = %28
  %32 = load i32, ptr getelementptr inbounds nuw (%struct.pmix_mca_base_framework_t, ptr @pmix_ptl_base_framework, i32 0, i32 11), align 4, !tbaa !37
  %33 = sext i32 %32 to i64
  %34 = getelementptr inbounds [0 x %struct.pmix_output_desc_t], ptr @pmix_output_info, i64 0, i64 %33
  %35 = getelementptr inbounds nuw %struct.pmix_output_desc_t, ptr %34, i32 0, i32 2
  %36 = load i32, ptr %35, align 4, !tbaa !40
  %37 = icmp sge i32 %36, 2
  br i1 %37, label %38, label %41

38:                                               ; preds = %31
  %39 = load i32, ptr getelementptr inbounds nuw (%struct.pmix_mca_base_framework_t, ptr @pmix_ptl_base_framework, i32 0, i32 11), align 4, !tbaa !37
  %40 = load ptr, ptr %8, align 8, !tbaa !8
  call void (i32, ptr, ...) @pmix_output(i32 noundef %39, ptr noundef @.str.37, ptr noundef %40)
  br label %41

41:                                               ; preds = %38, %31, %28, %25
  br label %42

42:                                               ; preds = %139, %69, %58, %41
  %43 = load ptr, ptr %15, align 8, !tbaa !142
  %44 = call ptr @readdir(ptr noundef %43)
  store ptr %44, ptr %17, align 8, !tbaa !144
  %45 = icmp ne ptr null, %44
  br i1 %45, label %46, label %141

46:                                               ; preds = %42
  %47 = load ptr, ptr %17, align 8, !tbaa !144
  %48 = getelementptr inbounds nuw %struct.dirent, ptr %47, i32 0, i32 4
  %49 = getelementptr inbounds [256 x i8], ptr %48, i64 0, i64 0
  %50 = call i32 @strcmp(ptr noundef %49, ptr noundef @.str.38) #14
  %51 = icmp eq i32 0, %50
  br i1 %51, label %58, label %52

52:                                               ; preds = %46
  %53 = load ptr, ptr %17, align 8, !tbaa !144
  %54 = getelementptr inbounds nuw %struct.dirent, ptr %53, i32 0, i32 4
  %55 = getelementptr inbounds [256 x i8], ptr %54, i64 0, i64 0
  %56 = call i32 @strcmp(ptr noundef %55, ptr noundef @.str.39) #14
  %57 = icmp eq i32 0, %56
  br i1 %57, label %58, label %59

58:                                               ; preds = %52, %46
  br label %42, !llvm.loop !146

59:                                               ; preds = %52
  %60 = load ptr, ptr %8, align 8, !tbaa !8
  %61 = load ptr, ptr %17, align 8, !tbaa !144
  %62 = getelementptr inbounds nuw %struct.dirent, ptr %61, i32 0, i32 4
  %63 = getelementptr inbounds [256 x i8], ptr %62, i64 0, i64 0
  %64 = call noalias ptr (i32, ...) @pmix_os_path(i32 noundef 0, ptr noundef %60, ptr noundef %63, ptr noundef null)
  store ptr %64, ptr %14, align 8, !tbaa !8
  %65 = load ptr, ptr %14, align 8, !tbaa !8
  %66 = call ptr @opendir(ptr noundef %65)
  store ptr %66, ptr %16, align 8, !tbaa !142
  %67 = load ptr, ptr %16, align 8, !tbaa !142
  %68 = icmp ne ptr null, %67
  br i1 %68, label %69, label %81

69:                                               ; preds = %59
  %70 = load ptr, ptr %16, align 8, !tbaa !142
  %71 = call i32 @closedir(ptr noundef %70)
  %72 = load ptr, ptr %14, align 8, !tbaa !8
  %73 = load ptr, ptr %9, align 8, !tbaa !8
  %74 = load ptr, ptr %10, align 8, !tbaa !64
  %75 = load i64, ptr %11, align 8, !tbaa !33
  %76 = load i8, ptr %12, align 1, !tbaa !89, !range !92, !noundef !93
  %77 = trunc i8 %76 to i1
  %78 = load ptr, ptr %13, align 8, !tbaa !90
  %79 = call i32 @pmix_ptl_base_df_search(ptr noundef %72, ptr noundef %73, ptr noundef %74, i64 noundef %75, i1 noundef zeroext %77, ptr noundef %78)
  %80 = load ptr, ptr %14, align 8, !tbaa !8
  call void @free(ptr noundef %80) #13
  br label %42, !llvm.loop !146

81:                                               ; preds = %59
  %82 = load i32, ptr getelementptr inbounds nuw (%struct.pmix_mca_base_framework_t, ptr @pmix_ptl_base_framework, i32 0, i32 11), align 4, !tbaa !37
  %83 = icmp sge i32 %82, 0
  br i1 %83, label %84, label %100

84:                                               ; preds = %81
  %85 = load i32, ptr getelementptr inbounds nuw (%struct.pmix_mca_base_framework_t, ptr @pmix_ptl_base_framework, i32 0, i32 11), align 4, !tbaa !37
  %86 = icmp slt i32 %85, 64
  br i1 %86, label %87, label %100

87:                                               ; preds = %84
  %88 = load i32, ptr getelementptr inbounds nuw (%struct.pmix_mca_base_framework_t, ptr @pmix_ptl_base_framework, i32 0, i32 11), align 4, !tbaa !37
  %89 = sext i32 %88 to i64
  %90 = getelementptr inbounds [0 x %struct.pmix_output_desc_t], ptr @pmix_output_info, i64 0, i64 %89
  %91 = getelementptr inbounds nuw %struct.pmix_output_desc_t, ptr %90, i32 0, i32 2
  %92 = load i32, ptr %91, align 4, !tbaa !40
  %93 = icmp sge i32 %92, 2
  br i1 %93, label %94, label %100

94:                                               ; preds = %87
  %95 = load i32, ptr getelementptr inbounds nuw (%struct.pmix_mca_base_framework_t, ptr @pmix_ptl_base_framework, i32 0, i32 11), align 4, !tbaa !37
  %96 = load ptr, ptr %17, align 8, !tbaa !144
  %97 = getelementptr inbounds nuw %struct.dirent, ptr %96, i32 0, i32 4
  %98 = getelementptr inbounds [256 x i8], ptr %97, i64 0, i64 0
  %99 = load ptr, ptr %9, align 8, !tbaa !8
  call void (i32, ptr, ...) @pmix_output(i32 noundef %95, ptr noundef @.str.40, ptr noundef %98, ptr noundef %99)
  br label %100

100:                                              ; preds = %94, %87, %84, %81
  %101 = load ptr, ptr %17, align 8, !tbaa !144
  %102 = getelementptr inbounds nuw %struct.dirent, ptr %101, i32 0, i32 4
  %103 = getelementptr inbounds [256 x i8], ptr %102, i64 0, i64 0
  %104 = load ptr, ptr %9, align 8, !tbaa !8
  %105 = load ptr, ptr %9, align 8, !tbaa !8
  %106 = call i64 @strlen(ptr noundef %105) #14
  %107 = call i32 @strncmp(ptr noundef %103, ptr noundef %104, i64 noundef %106) #14
  %108 = icmp eq i32 0, %107
  br i1 %108, label %109, label %139

109:                                              ; preds = %100
  %110 = load i32, ptr getelementptr inbounds nuw (%struct.pmix_mca_base_framework_t, ptr @pmix_ptl_base_framework, i32 0, i32 11), align 4, !tbaa !37
  %111 = icmp sge i32 %110, 0
  br i1 %111, label %112, label %125

112:                                              ; preds = %109
  %113 = load i32, ptr getelementptr inbounds nuw (%struct.pmix_mca_base_framework_t, ptr @pmix_ptl_base_framework, i32 0, i32 11), align 4, !tbaa !37
  %114 = icmp slt i32 %113, 64
  br i1 %114, label %115, label %125

115:                                              ; preds = %112
  %116 = load i32, ptr getelementptr inbounds nuw (%struct.pmix_mca_base_framework_t, ptr @pmix_ptl_base_framework, i32 0, i32 11), align 4, !tbaa !37
  %117 = sext i32 %116 to i64
  %118 = getelementptr inbounds [0 x %struct.pmix_output_desc_t], ptr @pmix_output_info, i64 0, i64 %117
  %119 = getelementptr inbounds nuw %struct.pmix_output_desc_t, ptr %118, i32 0, i32 2
  %120 = load i32, ptr %119, align 4, !tbaa !40
  %121 = icmp sge i32 %120, 2
  br i1 %121, label %122, label %125

122:                                              ; preds = %115
  %123 = load i32, ptr getelementptr inbounds nuw (%struct.pmix_mca_base_framework_t, ptr @pmix_ptl_base_framework, i32 0, i32 11), align 4, !tbaa !37
  %124 = load ptr, ptr %14, align 8, !tbaa !8
  call void (i32, ptr, ...) @pmix_output(i32 noundef %123, ptr noundef @.str.41, ptr noundef %124)
  br label %125

125:                                              ; preds = %122, %115, %112, %109
  %126 = load ptr, ptr %14, align 8, !tbaa !8
  %127 = load i8, ptr %12, align 1, !tbaa !89, !range !92, !noundef !93
  %128 = trunc i8 %127 to i1
  %129 = load ptr, ptr %13, align 8, !tbaa !90
  %130 = call i32 @pmix_ptl_base_parse_uri_file(ptr noundef %126, i1 noundef zeroext %128, ptr noundef %129)
  store i32 %130, ptr %18, align 4, !tbaa !60
  %131 = load i32, ptr %18, align 4, !tbaa !60
  %132 = icmp ne i32 0, %131
  br i1 %132, label %133, label %138

133:                                              ; preds = %125
  %134 = load ptr, ptr %14, align 8, !tbaa !8
  call void @free(ptr noundef %134) #13
  %135 = load ptr, ptr %15, align 8, !tbaa !142
  %136 = call i32 @closedir(ptr noundef %135)
  %137 = load i32, ptr %18, align 4, !tbaa !60
  store i32 %137, ptr %7, align 4
  store i32 1, ptr %19, align 4
  br label %149

138:                                              ; preds = %125
  br label %139

139:                                              ; preds = %138, %100
  %140 = load ptr, ptr %14, align 8, !tbaa !8
  call void @free(ptr noundef %140) #13
  br label %42, !llvm.loop !146

141:                                              ; preds = %42
  %142 = load ptr, ptr %15, align 8, !tbaa !142
  %143 = call i32 @closedir(ptr noundef %142)
  %144 = load ptr, ptr %13, align 8, !tbaa !90
  %145 = call i64 @pmix_list_get_size(ptr noundef %144)
  %146 = icmp eq i64 0, %145
  br i1 %146, label %147, label %148

147:                                              ; preds = %141
  store i32 -46, ptr %7, align 4
  store i32 1, ptr %19, align 4
  br label %149

148:                                              ; preds = %141
  store i32 0, ptr %7, align 4
  store i32 1, ptr %19, align 4
  br label %149

149:                                              ; preds = %148, %147, %133, %24
  call void @llvm.lifetime.end.p0(i64 4, ptr %18) #13
  call void @llvm.lifetime.end.p0(i64 8, ptr %17) #13
  call void @llvm.lifetime.end.p0(i64 8, ptr %16) #13
  call void @llvm.lifetime.end.p0(i64 8, ptr %15) #13
  call void @llvm.lifetime.end.p0(i64 8, ptr %14) #13
  %150 = load i32, ptr %7, align 4
  ret i32 %150
}