; Function Attrs: nounwind uwtable
define range(i32 -47, 1) i32 @pmix_ptl_base_df_search(ptr noundef %0, ptr noundef %1, ptr noundef readnone captures(none) %2, i64 noundef %3, i1 noundef zeroext %4, ptr noundef %5) local_unnamed_addr #0 {
  %7 = tail call ptr @opendir(ptr noundef %0)
  %8 = icmp eq ptr %7, null
  br i1 %8, label %64, label %9

9:                                                ; preds = %6
  %10 = load i32, ptr getelementptr inbounds nuw (i8, ptr @pmix_ptl_base_framework, i64 76), align 4, !tbaa !34
  %or.cond = icmp ult i32 %10, 64
  br i1 %or.cond, label %11, label %17

11:                                               ; preds = %9
  %12 = zext nneg i32 %10 to i64
  %13 = getelementptr inbounds nuw [0 x %struct.pmix_output_desc_t], ptr @pmix_output_info, i64 0, i64 %12, i32 2
  %14 = load i32, ptr %13, align 4, !tbaa !37
  %15 = icmp sgt i32 %14, 1
  br i1 %15, label %16, label %17

16:                                               ; preds = %11
  tail call void (i32, ptr, ...) @pmix_output(i32 noundef %10, ptr noundef nonnull @.str.37, ptr noundef %0) #20
  br label %17

17:                                               ; preds = %16, %11, %9
  %18 = tail call ptr @readdir(ptr noundef nonnull %7) #20
  %.not52 = icmp eq ptr %18, null
  br i1 %.not52, label %._crit_edge, label %sub_0

sub_0:                                            ; preds = %17, %.backedge
  %19 = phi ptr [ %30, %.backedge ], [ %18, %17 ]
  %20 = getelementptr inbounds nuw i8, ptr %19, i64 19
  %21 = load i8, ptr %20, align 1
  %.not53 = icmp eq i8 %21, 46
  br i1 %.not53, label %.tail, label %.tail47.thread

.tail:                                            ; preds = %sub_0
  %22 = getelementptr inbounds nuw i8, ptr %19, i64 20
  %23 = load i8, ptr %22, align 1
  %24 = icmp eq i8 %23, 0
  br i1 %24, label %.backedge, label %sub_149

sub_149:                                          ; preds = %.tail
  %25 = getelementptr inbounds nuw i8, ptr %19, i64 20
  %26 = load i8, ptr %25, align 1
  %.not55 = icmp eq i8 %26, 46
  br i1 %.not55, label %.tail47, label %.tail47.thread

.tail47:                                          ; preds = %sub_149
  %27 = getelementptr inbounds nuw i8, ptr %19, i64 21
  %28 = load i8, ptr %27, align 1
  %29 = icmp eq i8 %28, 0
  br i1 %29, label %.backedge, label %.tail47.thread

.backedge.sink.split:                             ; preds = %44, %56, %33
  tail call void @free(ptr noundef %31) #20
  br label %.backedge

.backedge:                                        ; preds = %.backedge.sink.split, %.tail, %.tail47
  %30 = tail call ptr @readdir(ptr noundef nonnull %7) #20
  %.not = icmp eq ptr %30, null
  br i1 %.not, label %._crit_edge, label %sub_0, !llvm.loop !108

.tail47.thread:                                   ; preds = %sub_0, %sub_149, %.tail47
  %31 = tail call noalias ptr (i32, ...) @pmix_os_path(i32 noundef 0, ptr noundef %0, ptr noundef nonnull %20, ptr noundef null) #20
  %32 = tail call ptr @opendir(ptr noundef %31)
  %.not45 = icmp eq ptr %32, null
  br i1 %.not45, label %36, label %33

33:                                               ; preds = %.tail47.thread
  %34 = tail call i32 @closedir(ptr noundef nonnull %32)
  %35 = tail call i32 @pmix_ptl_base_df_search(ptr noundef %31, ptr noundef %1, ptr noundef %2, i64 noundef %3, i1 noundef zeroext %4, ptr noundef %5)
  br label %.backedge.sink.split

36:                                               ; preds = %.tail47.thread
  %37 = load i32, ptr getelementptr inbounds nuw (i8, ptr @pmix_ptl_base_framework, i64 76), align 4, !tbaa !34
  %or.cond3 = icmp ult i32 %37, 64
  br i1 %or.cond3, label %38, label %44

38:                                               ; preds = %36
  %39 = zext nneg i32 %37 to i64
  %40 = getelementptr inbounds nuw [0 x %struct.pmix_output_desc_t], ptr @pmix_output_info, i64 0, i64 %39, i32 2
  %41 = load i32, ptr %40, align 4, !tbaa !37
  %42 = icmp sgt i32 %41, 1
  br i1 %42, label %43, label %44

43:                                               ; preds = %38
  tail call void (i32, ptr, ...) @pmix_output(i32 noundef %37, ptr noundef nonnull @.str.40, ptr noundef nonnull %20, ptr noundef %1) #20
  br label %44

44:                                               ; preds = %43, %38, %36
  %45 = tail call i64 @strlen(ptr noundef nonnull dereferenceable(1) %1) #21
  %46 = tail call i32 @strncmp(ptr noundef nonnull %20, ptr noundef nonnull %1, i64 noundef %45) #21
  %47 = icmp eq i32 %46, 0
  br i1 %47, label %48, label %.backedge.sink.split

48:                                               ; preds = %44
  %49 = load i32, ptr getelementptr inbounds nuw (i8, ptr @pmix_ptl_base_framework, i64 76), align 4, !tbaa !34
  %or.cond5 = icmp ult i32 %49, 64
  br i1 %or.cond5, label %50, label %56

50:                                               ; preds = %48
  %51 = zext nneg i32 %49 to i64
  %52 = getelementptr inbounds nuw [0 x %struct.pmix_output_desc_t], ptr @pmix_output_info, i64 0, i64 %51, i32 2
  %53 = load i32, ptr %52, align 4, !tbaa !37
  %54 = icmp sgt i32 %53, 1
  br i1 %54, label %55, label %56

55:                                               ; preds = %50
  tail call void (i32, ptr, ...) @pmix_output(i32 noundef %49, ptr noundef nonnull @.str.41, ptr noundef %31) #20
  br label %56

56:                                               ; preds = %55, %50, %48
  %57 = tail call i32 @pmix_ptl_base_parse_uri_file(ptr noundef %31, i1 noundef zeroext %4, ptr noundef %5)
  %.not46 = icmp eq i32 %57, 0
  br i1 %.not46, label %.backedge.sink.split, label %58

58:                                               ; preds = %56
  tail call void @free(ptr noundef %31) #20
  %59 = tail call i32 @closedir(ptr noundef nonnull %7)
  br label %64

._crit_edge:                                      ; preds = %.backedge, %17
  %60 = tail call i32 @closedir(ptr noundef nonnull %7)
  %61 = getelementptr inbounds nuw i8, ptr %5, i64 264
  %62 = load volatile i64, ptr %61, align 8, !tbaa !107
  %63 = icmp eq i64 %62, 0
  %. = select i1 %63, i32 -46, i32 0
  br label %64

64:                                               ; preds = %._crit_edge, %6, %58
  %.0 = phi i32 [ %57, %58 ], [ -46, %6 ], [ %., %._crit_edge ]
  ret i32 %.0
}